(dp0
Vengine
p1
Vpdflatex
p2
sVpackages
p3
c__builtin__
set
p4
((lp5
Vmulticol
p6
aVgeometry
p7
aVsetspace
p8
aVplaceins
p9
aVgraphicx
p10
aVfullpage
p11
aVnatbib
p12
atp13
Rp14
sVfiles_with_guttermarks
p15
g4
((lp16
V/Users/samdougherty/Documents/LATEX/LATEX-templates/Paper Template/./Formal_Paper_Article_Template.tex
p17
aS'Formal_Paper_Article_Template.tex'
p18
atp19
Rp20
sVsynctex
p21
I01
s.